target datalayout = "e-m:e-p270:32:32-p271:32:32-p272:64:64-i64:64-i128:128-f80:128-n8:16:32:64-S128"
target triple = "x86_64-pc-linux-gnu"

%struct.mbedtls_ecp_group = type { i32, %struct.mbedtls_mpi, %struct.mbedtls_mpi, %struct.mbedtls_mpi, %struct.mbedtls_ecp_point, %struct.mbedtls_mpi, i64, i64, i32, ptr, ptr, ptr, ptr, ptr, i64 }
%struct.mbedtls_ecp_point = type { %struct.mbedtls_mpi, %struct.mbedtls_mpi, %struct.mbedtls_mpi }
%struct.mbedtls_mpi = type { ptr, i16, i16 }

; Function Attrs: inlinehint nounwind uwtable
define internal i32 @mbedtls_mpi_add_mod(ptr noundef %0, ptr noundef %1, ptr noundef %2, ptr noundef %3) #8 {
  %5 = alloca ptr, align 8
  %6 = alloca ptr, align 8
  %7 = alloca ptr, align 8
  %8 = alloca ptr, align 8
  %9 = alloca i32, align 4
  store ptr %0, ptr %5, align 8, !tbaa !25
  store ptr %1, ptr %6, align 8, !tbaa !50
  store ptr %2, ptr %7, align 8, !tbaa !50
  store ptr %3, ptr %8, align 8, !tbaa !50
  call void @llvm.lifetime.start.p0(i64 4, ptr %9) #11
  store i32 -110, ptr %9, align 4, !tbaa !3
  br label %10

10:                                               ; preds = %4
  %11 = load ptr, ptr %6, align 8, !tbaa !50
  %12 = load ptr, ptr %7, align 8, !tbaa !50
  %13 = load ptr, ptr %8, align 8, !tbaa !50
  %14 = call i32 @mbedtls_mpi_add_mpi(ptr noundef %11, ptr noundef %12, ptr noundef %13)
  store i32 %14, ptr %9, align 4, !tbaa !3
  %15 = icmp ne i32 %14, 0
  br i1 %15, label %16, label %17

16:                                               ; preds = %10
  br label %39

17:                                               ; preds = %10
  br label %18

18:                                               ; preds = %17
  br label %19

19:                                               ; preds = %18
  br label %20

20:                                               ; preds = %37, %19
  %21 = load ptr, ptr %6, align 8, !tbaa !50
  %22 = load ptr, ptr %5, align 8, !tbaa !25
  %23 = getelementptr inbounds nuw %struct.mbedtls_ecp_group, ptr %22, i32 0, i32 1
  %24 = call i32 @mbedtls_mpi_cmp_mpi(ptr noundef %21, ptr noundef %23)
  %25 = icmp sge i32 %24, 0
  br i1 %25, label %26, label %38

26:                                               ; preds = %20
  br label %27

27:                                               ; preds = %26
  %28 = load ptr, ptr %6, align 8, !tbaa !50
  %29 = load ptr, ptr %6, align 8, !tbaa !50
  %30 = load ptr, ptr %5, align 8, !tbaa !25
  %31 = getelementptr inbounds nuw %struct.mbedtls_ecp_group, ptr %30, i32 0, i32 1
  %32 = call i32 @mbedtls_mpi_sub_abs(ptr noundef %28, ptr noundef %29, ptr noundef %31)
  store i32 %32, ptr %9, align 4, !tbaa !3
  %33 = icmp ne i32 %32, 0
  br i1 %33, label %34, label %35

34:                                               ; preds = %27
  br label %39

35:                                               ; preds = %27
  br label %36

36:                                               ; preds = %35
  br label %37

37:                                               ; preds = %36
  br label %20, !llvm.loop !68

38:                                               ; preds = %20
  br label %39

39:                                               ; preds = %38, %34, %16
  %40 = load i32, ptr %9, align 4, !tbaa !3
  call void @llvm.lifetime.end.p0(i64 4, ptr %9) #11
  ret i32 %40
}

; Function Attrs: inlinehint nounwind uwtable
define internal i32 @mbedtls_mpi_sub_int_mod(ptr noundef %0, ptr noundef %1, ptr noundef %2, i64 noundef %3) #8 {
  %5 = alloca ptr, align 8
  %6 = alloca ptr, align 8
  %7 = alloca ptr, align 8
  %8 = alloca i64, align 8
  %9 = alloca i32, align 4
  store ptr %0, ptr %5, align 8, !tbaa !25
  store ptr %1, ptr %6, align 8, !tbaa !50
  store ptr %2, ptr %7, align 8, !tbaa !50
  store i64 %3, ptr %8, align 8, !tbaa !7
  call void @llvm.lifetime.start.p0(i64 4, ptr %9) #11
  store i32 -110, ptr %9, align 4, !tbaa !3
  br label %10

10:                                               ; preds = %4
  %11 = load ptr, ptr %6, align 8, !tbaa !50
  %12 = load ptr, ptr %7, align 8, !tbaa !50
  %13 = load i64, ptr %8, align 8, !tbaa !7
  %14 = call i32 @mbedtls_mpi_sub_int(ptr noundef %11, ptr noundef %12, i64 noundef %13)
  store i32 %14, ptr %9, align 4, !tbaa !3
  %15 = icmp ne i32 %14, 0
  br i1 %15, label %16, label %17

16:                                               ; preds = %10
  br label %48

17:                                               ; preds = %10
  br label %18

18:                                               ; preds = %17
  br label %19

19:                                               ; preds = %18
  br label %20

20:                                               ; preds = %19
  br label %21

21:                                               ; preds = %44, %20
  %22 = load ptr, ptr %6, align 8, !tbaa !50
  %23 = getelementptr inbounds nuw %struct.mbedtls_mpi, ptr %22, i32 0, i32 1
  %24 = load i16, ptr %23, align 8, !tbaa !66
  %25 = sext i16 %24 to i32
  %26 = icmp slt i32 %25, 0
  br i1 %26, label %27, label %31

27:                                               ; preds = %21
  %28 = load ptr, ptr %6, align 8, !tbaa !50
  %29 = call i32 @mbedtls_mpi_cmp_int(ptr noundef %28, i64 noundef 0)
  %30 = icmp ne i32 %29, 0
  br label %31

31:                                               ; preds = %27, %21
  %32 = phi i1 [ false, %21 ], [ %30, %27 ]
  br i1 %32, label %33, label %45

33:                                               ; preds = %31
  br label %34

34:                                               ; preds = %33
  %35 = load ptr, ptr %6, align 8, !tbaa !50
  %36 = load ptr, ptr %6, align 8, !tbaa !50
  %37 = load ptr, ptr %5, align 8, !tbaa !25
  %38 = getelementptr inbounds nuw %struct.mbedtls_ecp_group, ptr %37, i32 0, i32 1
  %39 = call i32 @mbedtls_mpi_add_mpi(ptr noundef %35, ptr noundef %36, ptr noundef %38)
  store i32 %39, ptr %9, align 4, !tbaa !3
  %40 = icmp ne i32 %39, 0
  br i1 %40, label %41, label %42

41:                                               ; preds = %34
  br label %48

42:                                               ; preds = %34
  br label %43

43:                                               ; preds = %42
  br label %44

44:                                               ; preds = %43
  br label %21, !llvm.loop !67

45:                                               ; preds = %31
  br label %46

46:                                               ; preds = %45
  br label %47

47:                                               ; preds = %46
  br label %48

48:                                               ; preds = %47, %41, %16
  %49 = load i32, ptr %9, align 4, !tbaa !3
  call void @llvm.lifetime.end.p0(i64 4, ptr %9) #11
  ret i32 %49
}

; Function Attrs: inlinehint nounwind uwtable
define internal i32 @mbedtls_ecp_group_a_is_minus_3(ptr noundef %0) #8 {
  %2 = alloca ptr, align 8
  store ptr %0, ptr %2, align 8, !tbaa !25
  %3 = load ptr, ptr %2, align 8, !tbaa !25
  %4 = getelementptr inbounds nuw %struct.mbedtls_ecp_group, ptr %3, i32 0, i32 2
  %5 = getelementptr inbounds nuw %struct.mbedtls_mpi, ptr %4, i32 0, i32 0
  %6 = load ptr, ptr %5, align 8, !tbaa !65
  %7 = icmp eq ptr %6, null
  %8 = zext i1 %7 to i32
  ret i32 %8
}

; Function Attrs: nounwind uwtable
define internal i32 @ecp_sw_rhs(ptr noundef %0, ptr noundef %1, ptr noundef %2) #0 {
  %4 = alloca ptr, align 8
  %5 = alloca ptr, align 8
  %6 = alloca ptr, align 8
  %7 = alloca i32, align 4
  store ptr %0, ptr %4, align 8, !tbaa !25
  store ptr %1, ptr %5, align 8, !tbaa !50
  store ptr %2, ptr %6, align 8, !tbaa !50
  call void @llvm.lifetime.start.p0(i64 4, ptr %7) #11
  br label %8

8:                                                ; preds = %3
  %9 = load ptr, ptr %4, align 8, !tbaa !25
  %10 = load ptr, ptr %5, align 8, !tbaa !50
  %11 = load ptr, ptr %6, align 8, !tbaa !50
  %12 = load ptr, ptr %6, align 8, !tbaa !50
  %13 = call i32 @mbedtls_mpi_mul_mod(ptr noundef %9, ptr noundef %10, ptr noundef %11, ptr noundef %12)
  store i32 %13, ptr %7, align 4, !tbaa !3
  %14 = icmp ne i32 %13, 0
  br i1 %14, label %15, label %16

15:                                               ; preds = %8
  br label %70

16:                                               ; preds = %8
  br label %17

17:                                               ; preds = %16
  br label %18

18:                                               ; preds = %17
  %19 = load ptr, ptr %4, align 8, !tbaa !25
  %20 = call i32 @mbedtls_ecp_group_a_is_minus_3(ptr noundef %19)
  %21 = icmp ne i32 %20, 0
  br i1 %21, label %22, label %33

22:                                               ; preds = %18
  br label %23

23:                                               ; preds = %22
  %24 = load ptr, ptr %4, align 8, !tbaa !25
  %25 = load ptr, ptr %5, align 8, !tbaa !50
  %26 = load ptr, ptr %5, align 8, !tbaa !50
  %27 = call i32 @mbedtls_mpi_sub_int_mod(ptr noundef %24, ptr noundef %25, ptr noundef %26, i64 noundef 3)
  store i32 %27, ptr %7, align 4, !tbaa !3
  %28 = icmp ne i32 %27, 0
  br i1 %28, label %29, label %30

29:                                               ; preds = %23
  br label %70

30:                                               ; preds = %23
  br label %31

31:                                               ; preds = %30
  br label %32

32:                                               ; preds = %31
  br label %46

33:                                               ; preds = %18
  br label %34

34:                                               ; preds = %33
  %35 = load ptr, ptr %4, align 8, !tbaa !25
  %36 = load ptr, ptr %5, align 8, !tbaa !50
  %37 = load ptr, ptr %5, align 8, !tbaa !50
  %38 = load ptr, ptr %4, align 8, !tbaa !25
  %39 = getelementptr inbounds nuw %struct.mbedtls_ecp_group, ptr %38, i32 0, i32 2
  %40 = call i32 @mbedtls_mpi_add_mod(ptr noundef %35, ptr noundef %36, ptr noundef %37, ptr noundef %39)
  store i32 %40, ptr %7, align 4, !tbaa !3
  %41 = icmp ne i32 %40, 0
  br i1 %41, label %42, label %43

42:                                               ; preds = %34
  br label %70

43:                                               ; preds = %34
  br label %44

44:                                               ; preds = %43
  br label %45

45:                                               ; preds = %44
  br label %46

46:                                               ; preds = %45, %32
  br label %47

47:                                               ; preds = %46
  %48 = load ptr, ptr %4, align 8, !tbaa !25
  %49 = load ptr, ptr %5, align 8, !tbaa !50
  %50 = load ptr, ptr %5, align 8, !tbaa !50
  %51 = load ptr, ptr %6, align 8, !tbaa !50
  %52 = call i32 @mbedtls_mpi_mul_mod(ptr noundef %48, ptr noundef %49, ptr noundef %50, ptr noundef %51)
  store i32 %52, ptr %7, align 4, !tbaa !3
  %53 = icmp ne i32 %52, 0
  br i1 %53, label %54, label %55

54:                                               ; preds = %47
  br label %70

55:                                               ; preds = %47
  br label %56

56:                                               ; preds = %55
  br label %57

57:                                               ; preds = %56
  br label %58

58:                                               ; preds = %57
  %59 = load ptr, ptr %4, align 8, !tbaa !25
  %60 = load ptr, ptr %5, align 8, !tbaa !50
  %61 = load ptr, ptr %5, align 8, !tbaa !50
  %62 = load ptr, ptr %4, align 8, !tbaa !25
  %63 = getelementptr inbounds nuw %struct.mbedtls_ecp_group, ptr %62, i32 0, i32 3
  %64 = call i32 @mbedtls_mpi_add_mod(ptr noundef %59, ptr noundef %60, ptr noundef %61, ptr noundef %63)
  store i32 %64, ptr %7, align 4, !tbaa !3
  %65 = icmp ne i32 %64, 0
  br i1 %65, label %66, label %67

66:                                               ; preds = %58
  br label %70

67:                                               ; preds = %58
  br label %68

68:                                               ; preds = %67
  br label %69

69:                                               ; preds = %68
  br label %70

70:                                               ; preds = %69, %66, %54, %42, %29, %15
  %71 = load i32, ptr %7, align 4, !tbaa !3
  call void @llvm.lifetime.end.p0(i64 4, ptr %7) #11
  ret i32 %71
}