; Function Attrs: nounwind uwtable
define internal fastcc i32 @ecp_sw_rhs(ptr noundef %0, ptr noundef %1, ptr noundef %2) unnamed_addr #7 {
  %4 = tail call fastcc i32 @mbedtls_mpi_mul_mod(ptr noundef %0, ptr noundef %1, ptr noundef %2, ptr noundef %2)
  %.not = icmp eq i32 %4, 0
  br i1 %.not, label %5, label %mbedtls_mpi_sub_int_mod.exit

5:                                                ; preds = %3
  %6 = getelementptr i8, ptr %0, i64 24
  %.val = load ptr, ptr %6, align 8, !tbaa !62
  %.not41 = icmp eq ptr %.val, null
  br i1 %.not41, label %7, label %18

7:                                                ; preds = %5
  %8 = tail call i32 @mbedtls_mpi_sub_int(ptr noundef %1, ptr noundef %1, i64 noundef 3) #21
  %.not.i = icmp eq i32 %8, 0
  br i1 %.not.i, label %.preheader.i, label %mbedtls_mpi_sub_int_mod.exit

.preheader.i:                                     ; preds = %7
  %9 = getelementptr inbounds nuw i8, ptr %0, i64 8
  %10 = getelementptr inbounds nuw i8, ptr %1, i64 8
  br label %11

11:                                               ; preds = %16, %.preheader.i
  %12 = load i16, ptr %10, align 8, !tbaa !63
  %13 = icmp slt i16 %12, 0
  br i1 %13, label %14, label %mbedtls_mpi_add_mod.exit

14:                                               ; preds = %11
  %15 = tail call i32 @mbedtls_mpi_cmp_int(ptr noundef nonnull %1, i64 noundef 0) #21
  %.not12.i = icmp eq i32 %15, 0
  br i1 %.not12.i, label %mbedtls_mpi_add_mod.exit, label %16

16:                                               ; preds = %14
  %17 = tail call i32 @mbedtls_mpi_add_mpi(ptr noundef nonnull %1, ptr noundef nonnull %1, ptr noundef nonnull %9) #21
  %.not13.i = icmp eq i32 %17, 0
  br i1 %.not13.i, label %11, label %mbedtls_mpi_sub_int_mod.exit, !llvm.loop !64

18:                                               ; preds = %5
  %19 = tail call i32 @mbedtls_mpi_add_mpi(ptr noundef %1, ptr noundef %1, ptr noundef nonnull %6) #21
  %.not.i28 = icmp eq i32 %19, 0
  br i1 %.not.i28, label %.preheader.i30, label %mbedtls_mpi_sub_int_mod.exit

.preheader.i30:                                   ; preds = %18
  %20 = getelementptr inbounds nuw i8, ptr %0, i64 8
  br label %21

21:                                               ; preds = %24, %.preheader.i30
  %22 = tail call i32 @mbedtls_mpi_cmp_mpi(ptr noundef %1, ptr noundef nonnull %20) #21
  %23 = icmp sgt i32 %22, -1
  br i1 %23, label %24, label %mbedtls_mpi_add_mod.exit

24:                                               ; preds = %21
  %25 = tail call i32 @mbedtls_mpi_sub_abs(ptr noundef %1, ptr noundef %1, ptr noundef nonnull %20) #21
  %.not12.i31 = icmp eq i32 %25, 0
  br i1 %.not12.i31, label %21, label %mbedtls_mpi_sub_int_mod.exit, !llvm.loop !65

mbedtls_mpi_add_mod.exit:                         ; preds = %21, %14, %11
  %26 = tail call fastcc i32 @mbedtls_mpi_mul_mod(ptr noundef nonnull %0, ptr noundef %1, ptr noundef %1, ptr noundef %2)
  %.not27 = icmp eq i32 %26, 0
  br i1 %.not27, label %27, label %mbedtls_mpi_sub_int_mod.exit

27:                                               ; preds = %mbedtls_mpi_add_mod.exit
  %28 = getelementptr inbounds nuw i8, ptr %0, i64 40
  %29 = tail call i32 @mbedtls_mpi_add_mpi(ptr noundef %1, ptr noundef %1, ptr noundef nonnull %28) #21
  %.not.i32 = icmp eq i32 %29, 0
  br i1 %.not.i32, label %.preheader.i34, label %mbedtls_mpi_sub_int_mod.exit

.preheader.i34:                                   ; preds = %27
  %30 = getelementptr inbounds nuw i8, ptr %0, i64 8
  br label %31

31:                                               ; preds = %34, %.preheader.i34
  %32 = tail call i32 @mbedtls_mpi_cmp_mpi(ptr noundef %1, ptr noundef nonnull %30) #21
  %33 = icmp sgt i32 %32, -1
  br i1 %33, label %34, label %mbedtls_mpi_sub_int_mod.exit

34:                                               ; preds = %31
  %35 = tail call i32 @mbedtls_mpi_sub_abs(ptr noundef %1, ptr noundef %1, ptr noundef nonnull %30) #21
  %.not12.i35 = icmp eq i32 %35, 0
  br i1 %.not12.i35, label %31, label %mbedtls_mpi_sub_int_mod.exit, !llvm.loop !65

mbedtls_mpi_sub_int_mod.exit:                     ; preds = %24, %16, %34, %31, %18, %27, %7, %mbedtls_mpi_add_mod.exit, %3
  %.0 = phi i32 [ %4, %3 ], [ %26, %mbedtls_mpi_add_mod.exit ], [ %8, %7 ], [ %29, %27 ], [ %19, %18 ], [ %35, %34 ], [ 0, %31 ], [ %17, %16 ], [ %25, %24 ]
  ret i32 %.0
}